(lp1
(lp2
(I1
I5
I7
I10
tp3
a(I2
I4
I8
I10
tp4
a(I1
I3
tp5
a(I3
I4
tp6
aa(lp7
(I3
I4
I6
I8
tp8
a(I4
I5
I6
I8
tp9
a(I1
I2
tp10
a(I6
I9
tp11
aa(lp12
(I1
I4
I5
I10
tp13
a(I5
I6
I7
I10
tp14
a(I5
I6
tp15
a(I6
I9
tp16
aa(lp17
(I3
I4
I5
I6
tp18
a(I3
I4
I5
I7
tp19
a(I2
I5
tp20
a(I1
I7
tp21
aa(lp22
(I3
I6
I7
I9
tp23
a(I1
I2
I3
I8
tp24
a(I6
I9
tp25
a(I2
I10
tp26
aa(lp27
(I1
I6
I10
I11
tp28
a(I2
I7
I11
I13
tp29
a(I2
I3
I6
I10
tp30
a(I4
I10
tp31
a(I1
I7
tp32
a(I5
I6
tp33
aa(lp34
(I2
I5
I9
I11
tp35
a(I7
I8
I12
I14
tp36
a(I3
I10
I12
I13
tp37
a(I11
I12
tp38
a(I6
I11
tp39
a(I11
I15
tp40
aa(lp41
(I3
I7
I9
I11
tp42
a(I2
I3
I5
I7
tp43
a(I1
I8
I9
I12
tp44
a(I1
I5
tp45
a(I1
I6
tp46
a(I5
I15
tp47
aa(lp48
(I7
I8
I10
I13
tp49
a(I2
I5
I6
I9
tp50
a(I1
I3
I5
I12
tp51
a(I9
I14
tp52
a(I7
I9
tp53
a(I11
I13
tp54
aa(lp55
(I4
I5
I8
I10
tp56
a(I7
I9
I11
I15
tp57
a(I3
I4
I5
I10
tp58
a(I12
I14
tp59
a(I3
I4
tp60
a(I1
I4
tp61
aa(lp62
(I2
I3
I4
I15
tp63
a(I1
I8
I13
I15
tp64
a(I7
I10
I15
I17
tp65
a(I1
I4
I15
I18
tp66
a(I2
I4
I6
I13
tp67
a(I6
I15
tp68
a(I1
I10
tp69
a(I2
I15
tp70
a(I2
I9
tp71
aa(lp72
(I2
I3
I10
I19
tp73
a(I7
I13
I17
I20
tp74
a(I7
I10
I13
I19
tp75
a(I4
I8
I14
I16
tp76
a(I4
I6
I15
I17
tp77
a(I8
I10
tp78
a(I9
I17
tp79
a(I1
I6
tp80
a(I15
I18
tp81
aa(lp82
(I6
I9
I13
I15
tp83
a(I9
I10
I15
I18
tp84
a(I7
I9
I16
I18
tp85
a(I8
I9
I11
I20
tp86
a(I2
I4
I7
I10
tp87
a(I4
I12
tp88
a(I1
I19
tp89
a(I4
I20
tp90
a(I7
I12
tp91
aa(lp92
(I5
I6
I18
I20
tp93
a(I4
I11
I16
I19
tp94
a(I2
I4
I17
I19
tp95
a(I2
I3
I7
I16
tp96
a(I2
I4
I15
I18
tp97
a(I10
I20
tp98
a(I4
I6
tp99
a(I5
I14
tp100
a(I7
I12
tp101
aa(lp102
(I1
I5
I7
I9
tp103
a(I4
I9
I16
I20
tp104
a(I2
I9
I11
I16
tp105
a(I12
I13
I16
I17
tp106
a(I5
I7
I12
I14
tp107
a(I3
I8
tp108
a(I6
I12
tp109
a(I12
I16
tp110
a(I4
I11
tp111
aa(lp112
(I9
I13
I15
I25
tp113
a(I5
I6
I12
I18
tp114
a(I1
I8
I19
I22
tp115
a(I5
I8
I12
I15
tp116
a(I11
I14
I16
I25
tp117
a(I1
I2
I9
I22
tp118
a(I17
I25
tp119
a(I12
I15
tp120
a(I7
I24
tp121
a(I8
I16
tp122
a(I10
I11
tp123
aa(lp124
(I3
I18
I20
I21
tp125
a(I14
I15
I23
I24
tp126
a(I5
I13
I21
I23
tp127
a(I5
I12
I13
I17
tp128
a(I9
I13
I14
I15
tp129
a(I3
I12
I17
I22
tp130
a(I7
I9
tp131
a(I17
I19
tp132
a(I22
I25
tp133
a(I4
I15
tp134
a(I1
I6
tp135
aa(lp136
(I4
I14
I16
I18
tp137
a(I14
I20
I21
I24
tp138
a(I1
I4
I18
I22
tp139
a(I10
I14
I15
I21
tp140
a(I10
I13
I18
I21
tp141
a(I3
I6
I13
I20
tp142
a(I7
I16
tp143
a(I8
I13
tp144
a(I3
I13
tp145
a(I16
I23
tp146
a(I4
I13
tp147
aa(lp148
(I7
I11
I16
I22
tp149
a(I4
I15
I19
I24
tp150
a(I3
I6
I8
I11
tp151
a(I5
I9
I10
I19
tp152
a(I2
I4
I5
I15
tp153
a(I5
I8
I11
I24
tp154
a(I4
I12
tp155
a(I21
I25
tp156
a(I5
I8
tp157
a(I2
I4
tp158
a(I2
I21
tp159
aa(lp160
(I1
I6
I12
I16
tp161
a(I6
I17
I18
I23
tp162
a(I12
I15
I20
I23
tp163
a(I1
I15
I20
I21
tp164
a(I12
I13
I22
I23
tp165
a(I2
I12
I19
I21
tp166
a(I5
I21
tp167
a(I1
I10
tp168
a(I20
I25
tp169
a(I18
I22
tp170
a(I17
I19
tp171
aa(lp172
(I10
I13
I15
I20
tp173
a(I1
I7
I8
I28
tp174
a(I10
I20
I22
I27
tp175
a(I6
I7
I12
I23
tp176
a(I1
I17
I22
I28
tp177
a(I3
I21
I28
I29
tp178
a(I2
I22
I29
I30
tp179
a(I9
I11
tp180
a(I11
I27
tp181
a(I19
I22
tp182
a(I3
I4
tp183
a(I17
I29
tp184
ag183
aa(lp185
(I3
I25
I28
I30
tp186
a(I4
I9
I18
I28
tp187
a(I13
I15
I18
I30
tp188
a(I13
I25
I27
I28
tp189
a(I10
I12
I18
I28
tp190
a(I3
I17
I26
I28
tp191
a(I4
I11
I15
I23
tp192
a(I4
I10
tp193
a(I4
I5
tp194
a(I26
I29
tp195
a(I1
I2
tp196
a(I10
I21
tp197
a(I9
I15
tp198
aa(lp199
(I12
I13
I17
I18
tp200
a(I4
I16
I22
I29
tp201
a(I1
I3
I15
I28
tp202
a(I5
I17
I23
I27
tp203
a(I12
I13
I20
I25
tp204
a(I4
I5
I15
I16
tp205
a(I5
I9
I12
I26
tp206
a(I4
I10
tp207
a(I13
I23
tp208
a(I9
I19
tp209
a(I2
I8
tp210
a(I11
I15
tp211
a(I20
I28
tp212
aa(lp213
(I7
I16
I17
I28
tp214
a(I5
I9
I21
I26
tp215
a(I3
I7
I9
I16
tp216
a(I1
I4
I12
I16
tp217
a(I2
I3
I7
I26
tp218
a(I9
I10
I20
I21
tp219
a(I6
I10
I14
I24
tp220
a(I7
I17
tp221
a(I13
I18
tp222
a(I10
I22
tp223
a(I3
I14
tp224
a(I4
I29
tp225
a(I7
I20
tp226
aa(lp227
(I5
I7
I12
I19
tp228
a(I5
I12
I21
I23
tp229
a(I15
I17
I19
I24
tp230
a(I12
I14
I24
I29
tp231
a(I5
I10
I28
I29
tp232
a(I7
I14
I16
I26
tp233
a(I7
I10
I13
I22
tp234
a(I20
I28
tp235
a(I26
I28
tp236
a(I5
I13
tp237
a(I7
I29
tp238
a(I8
I16
tp239
a(I3
I24
tp240
aa(lp241
(I6
I16
I27
I34
tp242
a(I14
I25
I26
I28
tp243
a(I1
I16
I31
I34
tp244
a(I16
I24
I25
I30
tp245
a(I7
I9
I23
I26
tp246
a(I11
I13
I22
I30
tp247
a(I1
I2
I7
I24
tp248
a(I6
I7
I9
I21
tp249
a(I7
I28
tp250
a(I10
I15
tp251
a(I21
I27
tp252
a(I26
I35
tp253
a(I11
I19
tp254
a(I2
I4
tp255
a(I5
I31
tp256
aa(lp257
(I2
I11
I20
I30
tp258
a(I2
I4
I22
I30
tp259
a(I17
I22
I30
I35
tp260
a(I3
I12
I25
I35
tp261
a(I7
I8
I29
I30
tp262
a(I19
I22
I26
I29
tp263
a(I5
I13
I16
I21
tp264
a(I5
I23
I29
I33
tp265
a(I9
I24
tp266
a(I8
I25
tp267
a(I2
I19
tp268
a(I1
I24
tp269
a(I10
I24
tp270
a(I23
I26
tp271
a(I14
I30
tp272
aa(lp273
(I4
I7
I24
I29
tp274
a(I2
I10
I23
I30
tp275
a(I9
I16
I21
I30
tp276
a(I1
I3
I34
I35
tp277
a(I2
I11
I24
I29
tp278
a(I5
I14
I16
I26
tp279
a(I14
I19
I21
I33
tp280
a(I3
I25
I29
I35
tp281
a(I8
I12
tp282
a(I4
I9
tp283
a(I8
I25
tp284
a(I3
I31
tp285
a(I2
I14
tp286
a(I7
I11
tp287
a(I16
I31
tp288
aa(lp289
(I3
I13
I32
I35
tp290
a(I5
I7
I12
I30
tp291
a(I1
I19
I24
I28
tp292
a(I11
I12
I30
I32
tp293
a(I8
I21
I25
I34
tp294
a(I11
I13
I21
I33
tp295
a(I2
I6
I16
I31
tp296
a(I7
I26
I29
I35
tp297
a(I4
I9
tp298
a(I20
I28
tp299
a(I12
I25
tp300
a(I29
I34
tp301
a(I7
I21
tp302
a(I2
I34
tp303
a(I5
I33
tp304
aa(lp305
(I6
I8
I17
I25
tp306
a(I2
I8
I9
I11
tp307
a(I3
I13
I25
I32
tp308
a(I3
I4
I11
I33
tp309
a(I6
I10
I11
I16
tp310
a(I6
I13
I15
I18
tp311
a(I9
I10
I23
I32
tp312
a(I4
I8
I15
I18
tp313
a(I7
I30
tp314
a(I10
I14
tp315
a(I29
I31
tp316
a(I16
I23
tp317
a(I7
I12
tp318
a(I3
I11
tp319
a(I31
I32
tp320
aa(lp321
(I11
I31
I37
I38
tp322
a(I6
I18
I20
I28
tp323
a(I21
I25
I32
I37
tp324
a(I11
I13
I14
I29
tp325
a(I9
I13
I24
I30
tp326
a(I11
I25
I39
I40
tp327
a(I2
I25
I34
I35
tp328
a(I18
I24
I33
I39
tp329
a(I10
I12
I29
I31
tp330
a(I23
I28
I33
I40
tp331
a(I2
I33
tp332
a(I10
I40
tp333
a(I32
I35
tp334
a(I21
I32
tp335
a(I5
I31
tp336
a(I23
I34
tp337
a(I16
I29
tp338
a(I28
I40
tp339
aa(lp340
(I8
I18
I25
I29
tp341
a(I31
I35
I37
I39
tp342
a(I2
I16
I34
I37
tp343
a(I5
I17
I18
I20
tp344
a(I7
I29
I30
I36
tp345
a(I7
I14
I16
I29
tp346
a(I9
I16
I18
I20
tp347
a(I1
I8
I12
I16
tp348
a(I5
I11
I23
I24
tp349
a(I7
I10
I17
I19
tp350
a(I16
I37
tp351
a(I9
I18
tp352
a(I2
I22
tp353
a(I8
I34
tp354
a(I19
I29
tp355
a(I2
I32
tp356
a(I5
I9
tp357
a(I6
I40
tp358
aa(lp359
(I10
I14
I24
I37
tp360
a(I22
I33
I34
I39
tp361
a(I18
I28
I36
I38
tp362
a(I16
I20
I24
I38
tp363
a(I9
I12
I20
I26
tp364
a(I2
I14
I26
I38
tp365
a(I9
I26
I34
I37
tp366
a(I12
I15
I23
I34
tp367
a(I10
I18
I20
I39
tp368
a(I7
I8
I23
I31
tp369
a(I24
I25
tp370
a(I4
I39
tp371
a(I5
I30
tp372
a(I25
I33
tp373
ag372
a(I6
I11
tp374
a(I11
I19
tp375
a(I15
I29
tp376
aa(lp377
(I7
I26
I29
I38
tp378
a(I12
I31
I38
I39
tp379
a(I13
I19
I21
I37
tp380
a(I3
I9
I17
I20
tp381
a(I3
I10
I17
I30
tp382
a(I13
I28
I29
I30
tp383
a(I11
I33
I35
I36
tp384
a(I4
I11
I16
I29
tp385
a(I22
I25
I26
I33
tp386
a(I5
I6
I17
I22
tp387
a(I1
I21
tp388
a(I37
I38
tp389
a(I8
I36
tp390
a(I38
I40
tp391
a(I14
I36
tp392
a(I3
I33
tp393
a(I4
I10
tp394
a(I33
I34
tp395
aa(lp396
(I4
I14
I26
I32
tp397
a(I23
I24
I27
I29
tp398
a(I6
I24
I32
I38
tp399
a(I17
I24
I32
I33
tp400
a(I10
I21
I37
I40
tp401
a(I6
I13
I17
I39
tp402
a(I1
I5
I35
I39
tp403
a(I15
I18
I28
I29
tp404
a(I8
I17
I27
I38
tp405
a(I20
I24
I32
I39
tp406
a(I3
I4
tp407
a(I10
I19
tp408
a(I8
I33
tp409
a(I30
I36
tp410
a(I8
I11
tp411
a(I35
I40
tp412
a(I34
I35
tp413
a(I6
I26
tp414
aa(lp415
(I2
I3
I23
I34
tp416
a(I1
I18
I28
I31
tp417
a(I11
I16
I36
I38
tp418
a(I17
I29
I39
I43
tp419
a(I18
I29
I32
I40
tp420
a(I36
I39
I44
I45
tp421
a(I12
I26
I32
I44
tp422
a(I5
I6
I13
I24
tp423
a(I4
I10
I37
I44
tp424
a(I6
I34
I40
I43
tp425
a(I1
I5
I12
I16
tp426
a(I15
I40
tp427
a(I20
I25
tp428
a(I7
I18
tp429
a(I12
I45
tp430
a(I9
I40
tp431
a(I8
I37
tp432
a(I6
I23
tp433
a(I24
I35
tp434
a(I1
I35
tp435
aa(lp436
(I13
I15
I32
I37
tp437
a(I8
I16
I30
I35
tp438
a(I8
I9
I14
I24
tp439
a(I16
I31
I44
I45
tp440
a(I13
I19
I23
I33
tp441
a(I10
I22
I37
I40
tp442
a(I9
I15
I33
I36
tp443
a(I9
I13
I15
I31
tp444
a(I24
I26
I37
I44
tp445
a(I18
I19
I35
I39
tp446
a(I7
I9
I32
I44
tp447
a(I10
I35
tp448
a(I1
I5
tp449
a(I3
I17
tp450
a(I18
I33
tp451
a(I7
I35
tp452
a(I4
I14
tp453
a(I15
I31
tp454
a(I11
I31
tp455
a(I11
I34
tp456
aa(lp457
(I17
I20
I38
I41
tp458
a(I11
I12
I37
I41
tp459
a(I5
I11
I21
I29
tp460
a(I18
I22
I39
I43
tp461
a(I3
I5
I23
I29
tp462
a(I16
I30
I31
I38
tp463
a(I36
I38
I39
I45
tp464
a(I11
I19
I22
I33
tp465
a(I29
I31
I38
I41
tp466
a(I11
I25
I35
I40
tp467
a(I3
I14
I42
I43
tp468
a(I23
I42
tp469
a(I13
I16
tp470
a(I30
I35
tp471
a(I2
I44
tp472
a(I24
I45
tp473
a(I26
I36
tp474
a(I15
I32
tp475
a(I12
I18
tp476
a(I31
I32
tp477
aa(lp478
(I19
I24
I31
I39
tp479
a(I3
I28
I34
I41
tp480
a(I14
I18
I20
I45
tp481
a(I13
I24
I31
I39
tp482
a(I10
I16
I26
I31
tp483
a(I8
I20
I32
I45
tp484
a(I6
I23
I32
I34
tp485
a(I1
I17
I37
I43
tp486
a(I13
I26
I34
I37
tp487
a(I4
I11
I36
I38
tp488
a(I23
I28
I36
I37
tp489
a(I31
I39
tp490
a(I14
I22
tp491
a(I21
I43
tp492
a(I33
I37
tp493
a(I18
I28
tp494
a(I8
I29
tp495
a(I24
I28
tp496
a(I10
I26
tp497
a(I17
I43
tp498
aa(lp499
(I6
I31
I39
I40
tp500
a(I5
I8
I11
I25
tp501
a(I16
I34
I41
I44
tp502
a(I14
I15
I17
I33
tp503
a(I15
I18
I28
I37
tp504
a(I21
I22
I26
I43
tp505
a(I16
I29
I31
I42
tp506
a(I8
I14
I30
I43
tp507
a(I13
I14
I27
I45
tp508
a(I16
I30
I32
I39
tp509
a(I2
I13
I18
I39
tp510
a(I9
I39
tp511
a(I29
I31
tp512
a(I2
I37
tp513
a(I26
I37
tp514
a(I5
I40
tp515
a(I26
I44
tp516
a(I16
I41
tp517
a(I4
I38
tp518
a(I25
I43
tp519
aa(lp520
(I11
I41
I42
I49
tp521
a(I34
I42
I43
I47
tp522
a(I4
I14
I16
I45
tp523
a(I2
I12
I22
I25
tp524
a(I4
I5
I21
I25
tp525
a(I1
I14
I24
I26
tp526
a(I11
I15
I31
I42
tp527
a(I11
I21
I22
I28
tp528
a(I7
I12
I14
I39
tp529
a(I16
I22
I36
I44
tp530
a(I15
I27
I34
I40
tp531
a(I14
I29
I38
I40
tp532
a(I1
I28
tp533
a(I27
I44
tp534
a(I9
I23
tp535
a(I8
I10
tp536
a(I38
I50
tp537
a(I1
I11
tp538
a(I10
I43
tp539
a(I38
I40
tp540
a(I5
I34
tp541
a(I20
I49
tp542
aa(lp543
(I21
I25
I30
I33
tp544
a(I9
I29
I32
I39
tp545
a(I5
I15
I38
I49
tp546
a(I32
I37
I40
I48
tp547
a(I8
I24
I37
I42
tp548
a(I17
I29
I41
I42
tp549
a(I7
I32
I43
I46
tp550
a(I11
I14
I29
I43
tp551
a(I18
I25
I29
I34
tp552
a(I9
I19
I47
I49
tp553
a(I5
I24
I35
I42
tp554
a(I15
I30
I38
I49
tp555
a(I21
I31
tp556
a(I5
I14
tp557
a(I29
I31
tp558
a(I3
I42
tp559
a(I28
I29
tp560
a(I9
I22
tp561
a(I31
I42
tp562
a(I37
I44
tp563
a(I27
I31
tp564
a(I24
I49
tp565
aa(lp566
(I7
I10
I46
I50
tp567
a(I6
I29
I41
I43
tp568
a(I2
I8
I16
I38
tp569
a(I21
I22
I49
I50
tp570
a(I7
I12
I14
I33
tp571
a(I6
I35
I42
I43
tp572
a(I18
I26
I27
I43
tp573
a(I7
I14
I16
I33
tp574
a(I5
I17
I26
I40
tp575
a(I9
I15
I22
I46
tp576
a(I33
I44
I46
I49
tp577
a(I16
I33
I39
I46
tp578
a(I7
I30
tp579
a(I10
I13
tp580
a(I6
I50
tp581
a(I27
I30
tp582
a(I16
I30
tp583
a(I26
I31
tp584
a(I26
I27
tp585
a(I6
I14
tp586
a(I35
I45
tp587
a(I21
I25
tp588
aa(lp589
(I4
I13
I20
I26
tp590
a(I28
I31
I40
I45
tp591
a(I9
I18
I21
I44
tp592
a(I16
I17
I36
I39
tp593
a(I3
I10
I20
I34
tp594
a(I1
I15
I16
I44
tp595
a(I13
I16
I31
I50
tp596
a(I11
I22
I24
I37
tp597
a(I10
I44
I45
I48
tp598
a(I2
I3
I26
I32
tp599
a(I7
I12
I15
I40
tp600
a(I4
I12
I37
I43
tp601
a(I2
I37
tp602
a(I10
I17
tp603
a(I6
I18
tp604
a(I11
I33
tp605
a(I13
I19
tp606
a(I44
I46
tp607
a(I19
I41
tp608
a(I11
I31
tp609
a(I23
I34
tp610
a(I12
I32
tp611
aa(lp612
(I15
I25
I39
I47
tp613
a(I13
I33
I37
I49
tp614
a(I12
I15
I24
I49
tp615
a(I9
I16
I24
I40
tp616
a(I18
I21
I30
I35
tp617
a(I2
I22
I26
I40
tp618
a(I18
I41
I47
I48
tp619
a(I11
I29
I32
I38
tp620
a(I2
I10
I12
I42
tp621
a(I11
I14
I38
I49
tp622
a(I4
I5
I26
I43
tp623
a(I3
I8
I40
I47
tp624
a(I15
I24
tp625
a(I40
I48
tp626
a(I13
I15
tp627
a(I5
I33
tp628
a(I28
I48
tp629
a(I32
I36
tp630
a(I43
I48
tp631
a(I10
I31
tp632
a(I30
I40
tp633
a(I31
I46
tp634
aa(lp635
(I25
I27
I28
I33
tp636
a(I4
I8
I34
I44
tp637
a(I2
I14
I31
I42
tp638
a(I2
I10
I42
I49
tp639
a(I25
I38
I43
I46
tp640
a(I2
I31
I38
I51
tp641
a(I8
I27
I34
I48
tp642
a(I6
I17
I50
I51
tp643
a(I19
I27
I32
I43
tp644
a(I44
I45
I46
I51
tp645
a(I8
I25
I50
I53
tp646
a(I20
I25
I28
I51
tp647
a(I21
I24
I29
I35
tp648
a(I31
I37
tp649
a(I38
I52
tp650
a(I33
I45
tp651
a(I3
I53
tp652
a(I19
I39
tp653
a(I21
I25
tp654
a(I24
I33
tp655
a(I7
I41
tp656
a(I28
I38
tp657
a(I11
I29
tp658
a(I39
I43
tp659
aa(lp660
(I6
I14
I41
I53
tp661
a(I6
I23
I32
I47
tp662
a(I20
I41
I50
I54
tp663
a(I8
I14
I31
I54
tp664
a(I11
I12
I18
I20
tp665
a(I3
I10
I22
I53
tp666
a(I9
I29
I33
I44
tp667
a(I5
I38
I44
I53
tp668
a(I14
I15
I18
I48
tp669
a(I9
I17
I43
I44
tp670
a(I1
I5
I11
I31
tp671
a(I17
I31
I46
I53
tp672
a(I23
I32
I45
I51
tp673
a(I16
I55
tp674
a(I9
I19
tp675
a(I33
I49
tp676
a(I7
I23
tp677
a(I19
I38
tp678
a(I8
I47
tp679
a(I38
I40
tp680
a(I1
I31
tp681
a(I22
I34
tp682
a(I30
I38
tp683
a(I33
I43
tp684
aa(lp685
(I27
I28
I40
I48
tp686
a(I23
I28
I29
I30
tp687
a(I8
I28
I41
I45
tp688
a(I3
I19
I20
I37
tp689
a(I4
I25
I27
I42
tp690
a(I3
I26
I28
I35
tp691
a(I15
I19
I22
I55
tp692
a(I7
I19
I28
I35
tp693
a(I3
I7
I10
I50
tp694
a(I7
I25
I46
I52
tp695
a(I1
I2
I16
I48
tp696
a(I1
I2
I36
I54
tp697
a(I37
I40
I45
I52
tp698
a(I6
I31
tp699
a(I21
I42
tp700
a(I42
I53
tp701
a(I8
I27
tp702
a(I14
I23
tp703
a(I23
I40
tp704
a(I7
I40
tp705
a(I10
I22
tp706
a(I22
I25
tp707
a(I11
I17
tp708
a(I34
I35
tp709
aa(lp710
(I20
I23
I31
I54
tp711
a(I8
I19
I27
I51
tp712
a(I12
I15
I23
I53
tp713
a(I16
I30
I50
I52
tp714
a(I10
I12
I18
I53
tp715
a(I4
I40
I41
I43
tp716
a(I19
I26
I28
I41
tp717
a(I6
I7
I23
I27
tp718
a(I20
I46
I47
I55
tp719
a(I6
I7
I15
I33
tp720
a(I20
I37
I43
I48
tp721
a(I6
I39
I52
I54
tp722
a(I2
I5
I8
I44
tp723
a(I19
I21
tp724
a(I28
I43
tp725
a(I21
I36
tp726
a(I17
I44
tp727
a(I14
I34
tp728
a(I5
I8
tp729
a(I22
I27
tp730
a(I7
I18
tp731
a(I23
I50
tp732
a(I7
I12
tp733
a(I38
I52
tp734
aa(lp735
(I1
I12
I41
I49
tp736
a(I18
I35
I40
I50
tp737
a(I16
I27
I47
I49
tp738
a(I14
I23
I31
I45
tp739
a(I14
I21
I42
I55
tp740
a(I7
I16
I28
I52
tp741
a(I3
I33
I39
I48
tp742
a(I7
I20
I38
I53
tp743
a(I7
I30
I33
I37
tp744
a(I29
I37
I39
I51
tp745
a(I27
I41
I43
I47
tp746
a(I8
I17
I32
I37
tp747
a(I9
I14
I45
I53
tp748
a(I9
I20
tp749
a(I10
I23
tp750
a(I51
I52
tp751
a(I14
I24
tp752
a(I30
I55
tp753
a(I27
I51
tp754
a(I24
I36
tp755
a(I44
I52
tp756
ag755
a(I37
I50
tp757
a(I29
I48
tp758
aa(lp759
(I12
I42
I47
I60
tp760
a(I17
I25
I46
I51
tp761
a(I23
I24
I39
I56
tp762
a(I16
I18
I24
I38
tp763
a(I7
I12
I23
I56
tp764
a(I22
I26
I28
I41
tp765
a(I5
I8
I27
I29
tp766
a(I27
I37
I41
I56
tp767
a(I14
I37
I48
I55
tp768
a(I15
I20
I49
I60
tp769
a(I18
I21
I31
I51
tp770
a(I17
I35
I38
I53
tp771
a(I11
I42
I48
I56
tp772
a(I2
I3
I7
I41
tp773
a(I32
I39
I46
I48
tp774
a(I2
I38
tp775
a(I25
I49
tp776
a(I4
I40
tp777
a(I16
I33
tp778
a(I17
I56
tp779
a(I4
I14
tp780
a(I28
I36
tp781
a(I27
I31
tp782
a(I17
I23
tp783
a(I26
I54
tp784
a(I34
I35
tp785
a(I18
I31
tp786
aa(lp787
(I4
I10
I16
I28
tp788
a(I4
I21
I24
I34
tp789
a(I22
I23
I33
I40
tp790
a(I8
I37
I41
I55
tp791
a(I7
I31
I33
I46
tp792
a(I16
I28
I38
I57
tp793
a(I22
I30
I34
I52
tp794
a(I10
I15
I18
I34
tp795
a(I3
I12
I22
I54
tp796
a(I11
I14
I32
I37
tp797
a(I5
I22
I46
I47
tp798
a(I11
I31
I38
I59
tp799
a(I5
I42
I44
I54
tp800
a(I12
I32
I36
I45
tp801
a(I20
I32
I35
I49
tp802
a(I39
I48
tp803
a(I20
I41
tp804
a(I16
I30
tp805
a(I34
I55
tp806
a(I33
I38
tp807
a(I7
I56
tp808
a(I17
I27
tp809
a(I17
I21
tp810
a(I21
I48
tp811
a(I35
I59
tp812
a(I23
I56
tp813
a(I26
I47
tp814
aa(lp815
(I8
I10
I23
I25
tp816
a(I1
I14
I53
I56
tp817
a(I6
I23
I30
I52
tp818
a(I4
I14
I15
I46
tp819
a(I21
I22
I39
I42
tp820
a(I9
I12
I20
I43
tp821
a(I4
I24
I35
I55
tp822
a(I4
I8
I20
I39
tp823
a(I8
I11
I24
I31
tp824
a(I19
I25
I33
I36
tp825
a(I4
I26
I54
I55
tp826
a(I7
I29
I50
I57
tp827
a(I38
I41
I45
I46
tp828
a(I2
I25
I32
I49
tp829
a(I8
I9
I37
I46
tp830
a(I29
I40
tp831
a(I22
I44
tp832
a(I1
I21
tp833
a(I12
I37
tp834
a(I24
I47
tp835
a(I36
I52
tp836
a(I18
I37
tp837
a(I15
I48
tp838
a(I1
I34
tp839
a(I29
I47
tp840
a(I11
I50
tp841
a(I25
I60
tp842
aa(lp843
(I20
I27
I50
I55
tp844
a(I29
I49
I57
I58
tp845
a(I16
I32
I38
I55
tp846
a(I2
I44
I50
I56
tp847
a(I25
I38
I39
I51
tp848
a(I8
I11
I29
I42
tp849
a(I18
I19
I34
I56
tp850
a(I5
I9
I21
I60
tp851
a(I1
I2
I5
I44
tp852
a(I14
I32
I56
I59
tp853
a(I6
I8
I46
I52
tp854
a(I2
I28
I47
I55
tp855
a(I17
I18
I20
I57
tp856
a(I22
I37
I49
I60
tp857
a(I9
I25
I27
I28
tp858
a(I42
I46
tp859
a(I23
I40
tp860
a(I47
I52
tp861
a(I29
I43
tp862
a(I27
I31
tp863
a(I30
I60
tp864
a(I36
I38
tp865
a(I15
I39
tp866
a(I1
I52
tp867
a(I46
I53
tp868
a(I4
I57
tp869
a(I3
I40
tp870
aa(lp871
(I9
I26
I42
I54
tp872
a(I5
I19
I28
I37
tp873
a(I25
I27
I47
I53
tp874
a(I18
I25
I27
I29
tp875
a(I13
I40
I41
I56
tp876
a(I13
I14
I26
I35
tp877
a(I20
I32
I46
I54
tp878
a(I17
I30
I35
I49
tp879
a(I27
I33
I44
I54
tp880
a(I22
I34
I45
I59
tp881
a(I9
I14
I32
I51
tp882
a(I4
I7
I23
I29
tp883
a(I5
I21
I52
I55
tp884
a(I17
I24
I49
I55
tp885
a(I2
I31
I34
I36
tp886
a(I20
I21
tp887
a(I53
I58
tp888
a(I40
I44
tp889
a(I18
I45
tp890
a(I34
I59
tp891
a(I48
I55
tp892
a(I37
I54
tp893
a(I39
I53
tp894
a(I2
I7
tp895
a(I36
I57
tp896
a(I35
I45
tp897
a(I15
I51
tp898
aa.